; Function Attrs: nounwind uwtable
define ptr @l_Array_foldlMUnsafe_fold___at_Lean_Meta_Grind_Arith_Cutsat_LeCnstr_erase___spec__7(ptr noundef %0, ptr noundef readonly captures(none) %1, i64 noundef %2, i64 noundef %3, ptr noundef %4) local_unnamed_addr #0 {
  %.not42 = icmp eq i64 %2, %3
  br i1 %.not42, label %._crit_edge, label %.lr.ph

.lr.ph:                                           ; preds = %5
  %6 = getelementptr inbounds nuw i8, ptr %1, i64 24
  br label %7

7:                                                ; preds = %.lr.ph, %lean_dec.exit
  %.02344 = phi i64 [ %2, %.lr.ph ], [ %38, %lean_dec.exit ]
  %.02543 = phi ptr [ %4, %.lr.ph ], [ %.227, %lean_dec.exit ]
  %8 = getelementptr inbounds nuw [0 x ptr], ptr %6, i64 0, i64 %.02344
  %9 = load ptr, ptr %8, align 8, !tbaa !4
  %10 = ptrtoint ptr %9 to i64
  %11 = and i64 %10, 1
  %.not.i31 = icmp eq i64 %11, 0
  br i1 %.not.i31, label %12, label %lean_array_uget.exit

12:                                               ; preds = %7
  %.val.i.i = load i32, ptr %9, align 4, !tbaa !8
  %13 = icmp sgt i32 %.val.i.i, 0
  br i1 %13, label %14, label %16, !prof !11

14:                                               ; preds = %12
  %15 = add nuw i32 %.val.i.i, 1
  store i32 %15, ptr %9, align 4, !tbaa !8
  br label %lean_array_uget.exit

16:                                               ; preds = %12
  %.not.i.i = icmp eq i32 %.val.i.i, 0
  br i1 %.not.i.i, label %lean_array_uget.exit, label %17

17:                                               ; preds = %16
  tail call void @lean_inc_ref_cold(ptr noundef nonnull %9) #4
  br label %lean_array_uget.exit

lean_array_uget.exit:                             ; preds = %7, %14, %16, %17
  %18 = getelementptr inbounds nuw i8, ptr %9, i64 8
  %19 = load ptr, ptr %18, align 8, !tbaa !4
  %20 = ptrtoint ptr %19 to i64
  %21 = and i64 %20, 1
  %.not40 = icmp eq i64 %21, 0
  br i1 %.not40, label %22, label %lean_inc.exit

22:                                               ; preds = %lean_array_uget.exit
  %.val.i = load i32, ptr %19, align 4, !tbaa !8
  %23 = icmp sgt i32 %.val.i, 0
  br i1 %23, label %24, label %26, !prof !11

24:                                               ; preds = %22
  %25 = add nuw i32 %.val.i, 1
  store i32 %25, ptr %19, align 4, !tbaa !8
  br label %29

26:                                               ; preds = %22
  %.not.i32 = icmp eq i32 %.val.i, 0
  br i1 %.not.i32, label %29, label %27

27:                                               ; preds = %26
  tail call void @lean_inc_ref_cold(ptr noundef nonnull %19) #4
  br label %29

lean_inc.exit:                                    ; preds = %lean_array_uget.exit
  %28 = tail call zeroext i8 @l_Int_Linear_beqPoly____x40_Init_Data_Int_Linear___hyg_596_(ptr noundef %19, ptr noundef %0) #4
  br label %lean_dec.exit28

29:                                               ; preds = %27, %26, %24
  %30 = tail call zeroext i8 @l_Int_Linear_beqPoly____x40_Init_Data_Int_Linear___hyg_596_(ptr noundef nonnull %19, ptr noundef %0) #4
  %31 = load i32, ptr %19, align 4, !tbaa !8
  %32 = icmp sgt i32 %31, 1
  br i1 %32, label %33, label %35, !prof !11

33:                                               ; preds = %29
  %34 = add nsw i32 %31, -1
  store i32 %34, ptr %19, align 4, !tbaa !8
  br label %lean_dec.exit28

35:                                               ; preds = %29
  %.not.i = icmp eq i32 %31, 0
  br i1 %.not.i, label %lean_dec.exit28, label %36

36:                                               ; preds = %35
  tail call void @lean_dec_ref_cold(ptr noundef nonnull %19) #4
  br label %lean_dec.exit28

lean_dec.exit28:                                  ; preds = %36, %35, %33, %lean_inc.exit
  %37 = phi i8 [ %28, %lean_inc.exit ], [ %30, %33 ], [ %30, %35 ], [ %30, %36 ]
  %38 = add i64 %.02344, 1
  %39 = icmp eq i8 %37, 0
  br i1 %39, label %40, label %42

40:                                               ; preds = %lean_dec.exit28
  %41 = tail call ptr @l_Lean_PersistentArray_push___rarg(ptr noundef %.02543, ptr noundef nonnull %9) #4
  br label %lean_dec.exit

42:                                               ; preds = %lean_dec.exit28
  br i1 %.not.i31, label %43, label %lean_dec.exit

43:                                               ; preds = %42
  %44 = load i32, ptr %9, align 4, !tbaa !8
  %45 = icmp sgt i32 %44, 1
  br i1 %45, label %46, label %48, !prof !11

46:                                               ; preds = %43
  %47 = add nsw i32 %44, -1
  store i32 %47, ptr %9, align 4, !tbaa !8
  br label %lean_dec.exit

48:                                               ; preds = %43
  %.not.i29 = icmp eq i32 %44, 0
  br i1 %.not.i29, label %lean_dec.exit, label %49

49:                                               ; preds = %48
  tail call void @lean_dec_ref_cold(ptr noundef nonnull %9) #4
  br label %lean_dec.exit

lean_dec.exit:                                    ; preds = %42, %46, %48, %49, %40
  %.227 = phi ptr [ %41, %40 ], [ %.02543, %49 ], [ %.02543, %48 ], [ %.02543, %46 ], [ %.02543, %42 ]
  %.not = icmp eq i64 %38, %3
  br i1 %.not, label %._crit_edge, label %7

._crit_edge:                                      ; preds = %lean_dec.exit, %5
  %.025.lcssa = phi ptr [ %4, %5 ], [ %.227, %lean_dec.exit ]
  ret ptr %.025.lcssa
}